target datalayout = "e-m:e-p270:32:32-p271:32:32-p272:64:64-i64:64-i128:128-f80:128-n8:16:32:64-S128"
target triple = "x86_64-pc-linux-gnu"

%struct.png_struct_def = type { [1 x %struct.__jmp_buf_tag], ptr, ptr, i64, ptr, ptr, ptr, ptr, ptr, ptr, ptr, ptr, ptr, i8, i8, i32, i32, i32, i32, %struct.z_stream_s, ptr, i32, i32, i32, i32, i32, i32, i32, i32, i32, i32, i32, i32, i32, i32, i32, i32, i32, i32, i32, i32, i64, i32, i32, i32, ptr, ptr, ptr, ptr, i64, i32, i32, ptr, i16, i32, i16, i8, i8, i8, i8, i8, i8, i8, i8, i8, i8, i8, i8, i8, i8, i8, i16, i8, i32, %struct.png_color_16_struct, %struct.png_color_16_struct, ptr, i32, i32, i32, i32, ptr, ptr, ptr, ptr, ptr, ptr, %struct.png_color_8_struct, %struct.png_color_8_struct, ptr, %struct.png_color_16_struct, ptr, ptr, ptr, ptr, ptr, ptr, ptr, ptr, ptr, i32, i32, i64, i64, i64, i64, i32, i32, ptr, ptr, i32, [29 x i8], i32, ptr, ptr, i32, i32, ptr, i8, i8, i16, i16, ptr, i32, i8, ptr, ptr, ptr, ptr, ptr, ptr, ptr, i8, i32, i32, i32, i64, %struct.png_unknown_chunk_t, i64, ptr, i64, i32, i32, ptr, [4 x ptr], %struct.png_colorspace }
%struct.__jmp_buf_tag = type { [8 x i64], i32, %struct.__sigset_t }
%struct.__sigset_t = type { [16 x i64] }
%struct.z_stream_s = type { ptr, i32, i64, ptr, i32, i64, ptr, ptr, ptr, ptr, ptr, i32, i64, i64 }
%struct.png_color_8_struct = type { i8, i8, i8, i8, i8 }
%struct.png_color_16_struct = type { i8, i16, i16, i16, i16 }
%struct.png_unknown_chunk_t = type { [5 x i8], ptr, i64, i8 }
%struct.png_colorspace = type { i32, %struct.png_xy, %struct.png_XYZ, i16, i16 }
%struct.png_xy = type { i32, i32, i32, i32, i32, i32, i32, i32 }
%struct.png_XYZ = type { i32, i32, i32, i32, i32, i32, i32, i32, i32 }

@png_read_push_finish_row.png_pass_start = internal constant [7 x i8] c"\00\04\00\02\00\01\00", align 1
@png_read_push_finish_row.png_pass_inc = internal constant [7 x i8] c"\08\08\04\04\02\02\01", align 1
@png_read_push_finish_row.png_pass_ystart = internal constant [7 x i8] c"\00\00\04\00\02\00\01", align 1
@png_read_push_finish_row.png_pass_yinc = internal constant [7 x i8] c"\08\08\08\04\04\02\02", align 1

; Function Attrs: nounwind uwtable
define void @png_read_push_finish_row(ptr noalias noundef %0) #0 {
  %2 = alloca ptr, align 8
  store ptr %0, ptr %2, align 8
  %3 = load ptr, ptr %2, align 8
  %4 = getelementptr inbounds %struct.png_struct_def, ptr %3, i32 0, i32 43
  %5 = load i32, ptr %4, align 4
  %6 = add i32 %5, 1
  store i32 %6, ptr %4, align 4
  %7 = load ptr, ptr %2, align 8
  %8 = getelementptr inbounds %struct.png_struct_def, ptr %7, i32 0, i32 43
  %9 = load i32, ptr %8, align 4
  %10 = load ptr, ptr %2, align 8
  %11 = getelementptr inbounds %struct.png_struct_def, ptr %10, i32 0, i32 39
  %12 = load i32, ptr %11, align 8
  %13 = icmp ult i32 %9, %12
  br i1 %13, label %14, label %15

14:                                               ; preds = %1
  br label %172

15:                                               ; preds = %1
  %16 = load ptr, ptr %2, align 8
  %17 = getelementptr inbounds %struct.png_struct_def, ptr %16, i32 0, i32 58
  %18 = load i8, ptr %17, align 4
  %19 = zext i8 %18 to i32
  %20 = icmp ne i32 %19, 0
  br i1 %20, label %21, label %172

21:                                               ; preds = %15
  %22 = load ptr, ptr %2, align 8
  %23 = getelementptr inbounds %struct.png_struct_def, ptr %22, i32 0, i32 43
  store i32 0, ptr %23, align 4
  %24 = load ptr, ptr %2, align 8
  %25 = getelementptr inbounds %struct.png_struct_def, ptr %24, i32 0, i32 45
  %26 = load ptr, ptr %25, align 8
  %27 = load ptr, ptr %2, align 8
  %28 = getelementptr inbounds %struct.png_struct_def, ptr %27, i32 0, i32 41
  %29 = load i64, ptr %28, align 8
  %30 = add i64 %29, 1
  call void @llvm.memset.p0.i64(ptr align 1 %26, i8 0, i64 %30, i1 false)
  br label %31

31:                                               ; preds = %169, %21
  %32 = load ptr, ptr %2, align 8
  %33 = getelementptr inbounds %struct.png_struct_def, ptr %32, i32 0, i32 59
  %34 = load i8, ptr %33, align 1
  %35 = add i8 %34, 1
  store i8 %35, ptr %33, align 1
  %36 = load ptr, ptr %2, align 8
  %37 = getelementptr inbounds %struct.png_struct_def, ptr %36, i32 0, i32 59
  %38 = load i8, ptr %37, align 1
  %39 = zext i8 %38 to i32
  %40 = icmp eq i32 %39, 1
  br i1 %40, label %41, label %46

41:                                               ; preds = %31
  %42 = load ptr, ptr %2, align 8
  %43 = getelementptr inbounds %struct.png_struct_def, ptr %42, i32 0, i32 37
  %44 = load i32, ptr %43, align 8
  %45 = icmp ult i32 %44, 5
  br i1 %45, label %68, label %46

46:                                               ; preds = %41, %31
  %47 = load ptr, ptr %2, align 8
  %48 = getelementptr inbounds %struct.png_struct_def, ptr %47, i32 0, i32 59
  %49 = load i8, ptr %48, align 1
  %50 = zext i8 %49 to i32
  %51 = icmp eq i32 %50, 3
  br i1 %51, label %52, label %57

52:                                               ; preds = %46
  %53 = load ptr, ptr %2, align 8
  %54 = getelementptr inbounds %struct.png_struct_def, ptr %53, i32 0, i32 37
  %55 = load i32, ptr %54, align 8
  %56 = icmp ult i32 %55, 3
  br i1 %56, label %68, label %57

57:                                               ; preds = %52, %46
  %58 = load ptr, ptr %2, align 8
  %59 = getelementptr inbounds %struct.png_struct_def, ptr %58, i32 0, i32 59
  %60 = load i8, ptr %59, align 1
  %61 = zext i8 %60 to i32
  %62 = icmp eq i32 %61, 5
  br i1 %62, label %63, label %73

63:                                               ; preds = %57
  %64 = load ptr, ptr %2, align 8
  %65 = getelementptr inbounds %struct.png_struct_def, ptr %64, i32 0, i32 37
  %66 = load i32, ptr %65, align 8
  %67 = icmp ult i32 %66, 2
  br i1 %67, label %68, label %73

68:                                               ; preds = %63, %52, %41
  %69 = load ptr, ptr %2, align 8
  %70 = getelementptr inbounds %struct.png_struct_def, ptr %69, i32 0, i32 59
  %71 = load i8, ptr %70, align 1
  %72 = add i8 %71, 1
  store i8 %72, ptr %70, align 1
  br label %73

73:                                               ; preds = %68, %63, %57
  %74 = load ptr, ptr %2, align 8
  %75 = getelementptr inbounds %struct.png_struct_def, ptr %74, i32 0, i32 59
  %76 = load i8, ptr %75, align 1
  %77 = zext i8 %76 to i32
  %78 = icmp sgt i32 %77, 7
  br i1 %78, label %79, label %84

79:                                               ; preds = %73
  %80 = load ptr, ptr %2, align 8
  %81 = getelementptr inbounds %struct.png_struct_def, ptr %80, i32 0, i32 59
  %82 = load i8, ptr %81, align 1
  %83 = add i8 %82, -1
  store i8 %83, ptr %81, align 1
  br label %84

84:                                               ; preds = %79, %73
  %85 = load ptr, ptr %2, align 8
  %86 = getelementptr inbounds %struct.png_struct_def, ptr %85, i32 0, i32 59
  %87 = load i8, ptr %86, align 1
  %88 = zext i8 %87 to i32
  %89 = icmp sge i32 %88, 7
  br i1 %89, label %90, label %91

90:                                               ; preds = %84
  br label %171

91:                                               ; preds = %84
  %92 = load ptr, ptr %2, align 8
  %93 = getelementptr inbounds %struct.png_struct_def, ptr %92, i32 0, i32 37
  %94 = load i32, ptr %93, align 8
  %95 = load ptr, ptr %2, align 8
  %96 = getelementptr inbounds %struct.png_struct_def, ptr %95, i32 0, i32 59
  %97 = load i8, ptr %96, align 1
  %98 = zext i8 %97 to i64
  %99 = getelementptr inbounds [7 x i8], ptr @png_read_push_finish_row.png_pass_inc, i64 0, i64 %98
  %100 = load i8, ptr %99, align 1
  %101 = zext i8 %100 to i32
  %102 = add i32 %94, %101
  %103 = sub i32 %102, 1
  %104 = load ptr, ptr %2, align 8
  %105 = getelementptr inbounds %struct.png_struct_def, ptr %104, i32 0, i32 59
  %106 = load i8, ptr %105, align 1
  %107 = zext i8 %106 to i64
  %108 = getelementptr inbounds [7 x i8], ptr @png_read_push_finish_row.png_pass_start, i64 0, i64 %107
  %109 = load i8, ptr %108, align 1
  %110 = zext i8 %109 to i32
  %111 = sub i32 %103, %110
  %112 = load ptr, ptr %2, align 8
  %113 = getelementptr inbounds %struct.png_struct_def, ptr %112, i32 0, i32 59
  %114 = load i8, ptr %113, align 1
  %115 = zext i8 %114 to i64
  %116 = getelementptr inbounds [7 x i8], ptr @png_read_push_finish_row.png_pass_inc, i64 0, i64 %115
  %117 = load i8, ptr %116, align 1
  %118 = zext i8 %117 to i32
  %119 = udiv i32 %111, %118
  %120 = load ptr, ptr %2, align 8
  %121 = getelementptr inbounds %struct.png_struct_def, ptr %120, i32 0, i32 42
  store i32 %119, ptr %121, align 8
  %122 = load ptr, ptr %2, align 8
  %123 = getelementptr inbounds %struct.png_struct_def, ptr %122, i32 0, i32 17
  %124 = load i32, ptr %123, align 4
  %125 = and i32 %124, 2
  %126 = icmp ne i32 %125, 0
  br i1 %126, label %127, label %128

127:                                              ; preds = %91
  br label %171

128:                                              ; preds = %91
  %129 = load ptr, ptr %2, align 8
  %130 = getelementptr inbounds %struct.png_struct_def, ptr %129, i32 0, i32 38
  %131 = load i32, ptr %130, align 4
  %132 = load ptr, ptr %2, align 8
  %133 = getelementptr inbounds %struct.png_struct_def, ptr %132, i32 0, i32 59
  %134 = load i8, ptr %133, align 1
  %135 = zext i8 %134 to i64
  %136 = getelementptr inbounds [7 x i8], ptr @png_read_push_finish_row.png_pass_yinc, i64 0, i64 %135
  %137 = load i8, ptr %136, align 1
  %138 = zext i8 %137 to i32
  %139 = add i32 %131, %138
  %140 = sub i32 %139, 1
  %141 = load ptr, ptr %2, align 8
  %142 = getelementptr inbounds %struct.png_struct_def, ptr %141, i32 0, i32 59
  %143 = load i8, ptr %142, align 1
  %144 = zext i8 %143 to i64
  %145 = getelementptr inbounds [7 x i8], ptr @png_read_push_finish_row.png_pass_ystart, i64 0, i64 %144
  %146 = load i8, ptr %145, align 1
  %147 = zext i8 %146 to i32
  %148 = sub i32 %140, %147
  %149 = load ptr, ptr %2, align 8
  %150 = getelementptr inbounds %struct.png_struct_def, ptr %149, i32 0, i32 59
  %151 = load i8, ptr %150, align 1
  %152 = zext i8 %151 to i64
  %153 = getelementptr inbounds [7 x i8], ptr @png_read_push_finish_row.png_pass_yinc, i64 0, i64 %152
  %154 = load i8, ptr %153, align 1
  %155 = zext i8 %154 to i32
  %156 = udiv i32 %148, %155
  %157 = load ptr, ptr %2, align 8
  %158 = getelementptr inbounds %struct.png_struct_def, ptr %157, i32 0, i32 39
  store i32 %156, ptr %158, align 8
  br label %159

159:                                              ; preds = %128
  %160 = load ptr, ptr %2, align 8
  %161 = getelementptr inbounds %struct.png_struct_def, ptr %160, i32 0, i32 42
  %162 = load i32, ptr %161, align 8
  %163 = icmp eq i32 %162, 0
  br i1 %163, label %169, label %164

164:                                              ; preds = %159
  %165 = load ptr, ptr %2, align 8
  %166 = getelementptr inbounds %struct.png_struct_def, ptr %165, i32 0, i32 39
  %167 = load i32, ptr %166, align 8
  %168 = icmp eq i32 %167, 0
  br label %169

169:                                              ; preds = %164, %159
  %170 = phi i1 [ true, %159 ], [ %168, %164 ]
  br i1 %170, label %31, label %171, !llvm.loop !21

171:                                              ; preds = %169, %127, %90
  br label %172

172:                                              ; preds = %171, %15, %14
  ret void
}