; Function Attrs: nofree norecurse nosync nounwind memory(write, argmem: readwrite, inaccessiblemem: none) uwtable
define void @png_read_push_finish_row(ptr noalias nocapture noundef %0) local_unnamed_addr #6 {
  %2 = getelementptr inbounds i8, ptr %0, i64 532
  %3 = load i32, ptr %2, align 4
  %4 = add i32 %3, 1
  store i32 %4, ptr %2, align 4
  %5 = getelementptr inbounds i8, ptr %0, i64 512
  %6 = load i32, ptr %5, align 8
  %7 = icmp ult i32 %4, %6
  br i1 %7, label %67, label %8

8:                                                ; preds = %1
  %9 = getelementptr inbounds i8, ptr %0, i64 612
  %10 = load i8, ptr %9, align 4
  %.not = icmp eq i8 %10, 0
  br i1 %.not, label %67, label %11

11:                                               ; preds = %8
  store i32 0, ptr %2, align 4
  %12 = getelementptr inbounds i8, ptr %0, i64 544
  %13 = load ptr, ptr %12, align 8
  %14 = getelementptr inbounds i8, ptr %0, i64 520
  %15 = load i64, ptr %14, align 8
  %16 = add i64 %15, 1
  tail call void @llvm.memset.p0.i64(ptr align 1 %13, i8 0, i64 %16, i1 false)
  %17 = getelementptr inbounds i8, ptr %0, i64 613
  %.promoted = load i8, ptr %17, align 1
  %18 = getelementptr inbounds i8, ptr %0, i64 504
  %19 = getelementptr inbounds i8, ptr %0, i64 528
  %20 = getelementptr inbounds i8, ptr %0, i64 308
  %21 = getelementptr inbounds i8, ptr %0, i64 508
  br label %.critedge

.critedge:                                        ; preds = %53, %11
  %.pr37 = phi i8 [ %39, %53 ], [ %.promoted, %11 ]
  %22 = add i8 %.pr37, 1
  switch i8 %.pr37, label %.thread32 [
    i8 0, label %23
    i8 2, label %26
    i8 4, label %29
  ]

23:                                               ; preds = %.critedge
  %24 = load i32, ptr %18, align 8
  %25 = icmp ult i32 %24, 5
  br i1 %25, label %.thread35, label %._crit_edge

26:                                               ; preds = %.critedge
  %27 = load i32, ptr %18, align 8
  %28 = icmp ult i32 %27, 3
  br i1 %28, label %.thread35, label %._crit_edge

29:                                               ; preds = %.critedge
  %30 = load i32, ptr %18, align 8
  %31 = icmp ult i32 %30, 2
  br i1 %31, label %.thread35, label %._crit_edge

.thread35:                                        ; preds = %29, %26, %23
  %32 = phi i32 [ %30, %29 ], [ %27, %26 ], [ %24, %23 ]
  %33 = add nuw nsw i8 %.pr37, 2
  br label %37

.thread32:                                        ; preds = %.critedge
  %34 = icmp ugt i8 %22, 7
  br i1 %34, label %.sink.split, label %35

35:                                               ; preds = %.thread32
  %36 = icmp eq i8 %22, 7
  br i1 %36, label %.sink.split, label %._crit_edge

._crit_edge:                                      ; preds = %23, %26, %29, %35
  %.pre = load i32, ptr %18, align 8
  br label %37

37:                                               ; preds = %._crit_edge, %.thread35
  %38 = phi i32 [ %32, %.thread35 ], [ %.pre, %._crit_edge ]
  %39 = phi i8 [ %33, %.thread35 ], [ %22, %._crit_edge ]
  %40 = zext nneg i8 %39 to i64
  %41 = getelementptr inbounds [7 x i8], ptr @png_read_push_finish_row.png_pass_inc, i64 0, i64 %40
  %42 = load i8, ptr %41, align 1
  %43 = zext i8 %42 to i32
  %44 = add i32 %38, %43
  %45 = getelementptr inbounds [7 x i8], ptr @png_read_push_finish_row.png_pass_start, i64 0, i64 %40
  %46 = load i8, ptr %45, align 1
  %47 = zext i8 %46 to i32
  %48 = xor i32 %47, -1
  %49 = add i32 %44, %48
  %50 = udiv i32 %49, %43
  store i32 %50, ptr %19, align 8
  %51 = load i32, ptr %20, align 4
  %52 = and i32 %51, 2
  %.not31 = icmp eq i32 %52, 0
  br i1 %.not31, label %53, label %.sink.split

53:                                               ; preds = %37
  %54 = load i32, ptr %21, align 4
  %55 = getelementptr inbounds [7 x i8], ptr @png_read_push_finish_row.png_pass_yinc, i64 0, i64 %40
  %56 = load i8, ptr %55, align 1
  %57 = zext i8 %56 to i32
  %58 = add i32 %54, %57
  %59 = getelementptr inbounds [7 x i8], ptr @png_read_push_finish_row.png_pass_ystart, i64 0, i64 %40
  %60 = load i8, ptr %59, align 1
  %61 = zext i8 %60 to i32
  %62 = xor i32 %61, -1
  %63 = add i32 %58, %62
  %64 = udiv i32 %63, %57
  store i32 %64, ptr %5, align 8
  %65 = icmp ult i32 %49, %43
  %66 = icmp ult i32 %63, %57
  %or.cond = select i1 %65, i1 true, i1 %66
  br i1 %or.cond, label %.critedge, label %.sink.split, !llvm.loop !96

.sink.split:                                      ; preds = %53, %35, %37, %.thread32
  %.pr39.sink = phi i8 [ %.pr37, %.thread32 ], [ %39, %37 ], [ 7, %35 ], [ %39, %53 ]
  store i8 %.pr39.sink, ptr %17, align 1
  br label %67

67:                                               ; preds = %.sink.split, %1, %8
  ret void
}